(lp0
(F575.633563997097
F679.2304469029639
tp1
a(F559.5793062649833
F665.679352241002
tp2
a(F544.2003307606492
F652.8047181202047
tp3
a(F529.5554739590556
F640.647328879158
tp4
a(F515.7072813137313
F629.2487584413656
tp5
a(F502.72159293191294
F618.6509516682246
tp6
a(F490.66689311588976
F608.8957217783682
tp7
a(F479.6133859683234
F600.0241661799964
tp8
a(F469.63177064589655
F592.0760086340266
tp9
a(F460.79170999487394
F585.0888821367229
tp10
a(F453.16001588842767
F579.0975738163647
tp11
a(F446.7986123523662
F574.1332597925328
tp12
a(F441.7623795662098
F570.2227634880951
tp13
a(F438.09702121790326
F567.387874385768
tp14
a(F435.83712554118193
F565.6447648480449
tp15
a(F447.68711268936806
F552.3324333485871
tp16
a.(lp0
(F394.8549978714494
F1005.2650572882213
tp1
a(F371.55865695443345
F991.9782219056345
tp2
a(F351.3369181640807
F973.7993796020683
tp3
a(F333.40205397073294
F954.4193096561581
tp4
a(F313.93044213479817
F938.7281845056641
tp5
a(F295.29259287357036
F923.4473402019537
tp6
a(F277.65645735880605
F908.5974773610291
tp7
a(F266.36761880815203
F889.1229630644063
tp8
a(F259.26617689911245
F868.5495027399958
tp9
a(F256.7552205065589
F846.9594865022356
tp10
a(F258.98735062615964
F824.4440085163952
tp11
a(F265.8266403189725
F801.1038001246585
tp12
a(F270.7709253278524
F780.4261981856263
tp13
a(F277.8848418005747
F760.0084230156742
tp14
a(F287.0071020064825
F739.8719857482602
tp15
a(F303.44949612557224
F716.3510575760433
tp16
a(F322.58021653461196
F692.1555498326935
tp17
a(F343.8184508910671
F667.4064155647812
tp18
a(F362.80178143991543
F644.6270695453693
tp19
a(F382.47763079534377
F622.0183229168344
tp20
a(F402.74451393117994
F599.5994740640558
tp21
a(F423.51758988795905
F577.3926433126018
tp22
a(F447.8099378194492
F552.5996361497375
tp23
a.(lp0
(F1001.5599210165055
F408.4904345193916
tp1
a(F980.3188814988171
F391.72195617286593
tp2
a(F959.2590596182006
F375.86932144290785
tp3
a(F938.3926563523914
F361.05318535640606
tp4
a(F917.7328650171575
F347.4061866318195
tp5
a(F897.2939571673838
F335.0712079008251
tp6
a(F877.09137471851
F324.19804166307557
tp7
a(F857.1418281953744
F314.9381305466656
tp8
a(F837.4634007994687
F307.4372812888572
tp9
a(F818.075657696227
F301.82666843792856
tp10
a(F798.9997595441548
F298.2130004449749
tp11
a(F780.2585787981571
F296.66925942613256
tp12
a(F761.8768166998016
F297.2276994872875
tp13
a(F743.8811180969212
F299.87657660537724
tp14
a(F726.3001802957428
F304.56135186628
tp15
a(F709.1648510283993
F311.1900912700648
tp16
a(F692.5082093164201
F319.64187579027663
tp17
a(F671.640084765349
F335.39136151104503
tp18
a(F649.8419364315874
F353.85234742913633
tp19
a(F623.5668976537488
F378.76980444296316
tp20
a(F596.5901678408533
F405.2567802372035
tp21
a(F573.5097075011417
F427.24934583182807
tp22
a(F550.5968950436542
F449.55639145631676
tp23
a.